; Function Attrs: null_pointer_is_valid sspstrong uwtable
define hidden range(i32 0, 3) i32 @text_import_scan(ptr noundef %0) local_unnamed_addr #0 {
  %calloc.i = tail call dereferenceable_or_null(144) ptr @calloc(i64 1, i64 144)
  %2 = icmp eq ptr %calloc.i, null
  br i1 %2, label %text_import_lex_init.exit, label %4

text_import_lex_init.exit:                        ; preds = %1
  %3 = tail call ptr @__errno_location() #27
  store i32 12, ptr %3, align 4
  br label %8

4:                                                ; preds = %1
  %5 = getelementptr inbounds nuw i8, ptr %calloc.i, i64 8
  store ptr %0, ptr %5, align 8
  %6 = tail call i32 @text_import_lex(ptr noundef nonnull %calloc.i)
  %7 = tail call i32 @text_import_lex_destroy(ptr noundef nonnull %calloc.i)
  br label %8

8:                                                ; preds = %text_import_lex_init.exit, %4
  %.0 = phi i32 [ %6, %4 ], [ 2, %text_import_lex_init.exit ]
  ret i32 %.0
}